EXPORTS
	_ZN10SDrawUtils11ShowToolTipEP27CAknInfoPopupNoteControllerP11CCoeControl5TRectRK7TDesC16 @ 1 NONAME
	_ZN10SDrawUtils11ShowToolTipEP27CAknInfoPopupNoteControllerP11CCoeControl6TPoint18TGulAlignmentValueRK7TDesC16 @ 2 NONAME
	_ZN10SDrawUtils12DrawFlatRectER16CGraphicsContextRK5TRectRK4TRgbS7_S7_ @ 3 NONAME
	_ZN10SDrawUtils15DrawBeveledRectER16CGraphicsContextRK5TRectRK4TRgbS7_S7_ @ 4 NONAME
	_ZN10SDrawUtils15LaunchWaitNoteLEPP14CAknWaitDialogiRK7TDesC16P23MProgressDialogCallback @ 5 NONAME
	_ZN10SDrawUtils18LaunchQueryDialogLERK7TDesC16 @ 6 NONAME
	_ZN10SDrawUtils19GetIndicatorBitmapLERP10CFbsBitmapS2_ii @ 7 NONAME
	_ZN10SDrawUtils19LaunchProgressNoteLEPP18CAknProgressDialogiRK7TDesC16iP23MProgressDialogCallback @ 8 NONAME
	_ZN10SDrawUtils22LaunchListQueryDialogLEP12MDesC16ArrayRK7TDesC16 @ 9 NONAME
	_ZN10SDrawUtils22LaunchTextQueryDialogLER6TDes16RK7TDesC16 @ 10 NONAME
	_ZN10SDrawUtils24LaunchQueryDialogOkOnlyLERK7TDesC16 @ 11 NONAME
	_ZN10SDrawUtils25LaunchColorSelectionGridLER4TRgb @ 12 NONAME
	_ZN10SDrawUtils26LaunchColorSelectionPopupLEPK10CFbsBitmap5TRectR4TRgb @ 13 NONAME
	_ZN10SDrawUtils31LaunchMultiLineTextQueryDialogLER6TDes16RK7TDesC16 @ 14 NONAME
	_ZN10SDrawUtils9DrawGuideER16CGraphicsContextRK5TRectNS_10TGuideTypeERK4TRgb @ 15 NONAME
	_ZN18CImageEditorUIView10ConstructLEv @ 16 NONAME
	_ZN18CImageEditorUIView11DoActivateLERK10TVwsViewId4TUidRK6TDesC8 @ 17 NONAME
	_ZN18CImageEditorUIView11SetSaveFlagEi @ 18 NONAME
	_ZN18CImageEditorUIView11SetUndoFlagEi @ 19 NONAME
	_ZN18CImageEditorUIView12DoDeactivateEv @ 20 NONAME
	_ZN18CImageEditorUIView12SetSendAppUiEP7CSendUi @ 21 NONAME
	_ZN18CImageEditorUIView12SetSoftKey1LERK7TDesC16i @ 22 NONAME
	_ZN18CImageEditorUIView12SetSoftKey2LERK7TDesC16i @ 23 NONAME
	_ZN18CImageEditorUIView12SetZoomModeLERK9TZoomMode @ 24 NONAME
	_ZN18CImageEditorUIView13SetFullScreenEv @ 25 NONAME
	_ZN18CImageEditorUIView14HandleCommandLEi @ 26 NONAME
	_ZN18CImageEditorUIView14InZoomingStateEv @ 27 NONAME
	_ZN18CImageEditorUIView15ActivatePluginLEP11CCoeControl @ 28 NONAME
	_ZN18CImageEditorUIView15ResetFullScreenEv @ 29 NONAME
	_ZN18CImageEditorUIView16AddPluginUiItemLEPK11CPluginInfo @ 30 NONAME
	_ZN18CImageEditorUIView16DynInitMenuPaneLEiP12CEikMenuPane @ 31 NONAME
	_ZN18CImageEditorUIView16SetImageFileNameERK7TDesC16 @ 32 NONAME
	_ZN18CImageEditorUIView16SetNaviPaneTextLERK7TDesC16ii @ 33 NONAME
	_ZN18CImageEditorUIView17ActivateMainViewLEv @ 34 NONAME
	_ZN18CImageEditorUIView17SetMiddleSoftKeyLERK7TDesC16i @ 35 NONAME
	_ZN18CImageEditorUIView17SetTitlePaneTextLERK7TDesC16 @ 36 NONAME
	_ZN18CImageEditorUIView18ClearNaviPaneTextLEv @ 37 NONAME
	_ZN18CImageEditorUIView19ClearTitlePaneTextLEv @ 38 NONAME
	_ZN18CImageEditorUIView21GetTouchPanDirectionsERiS0_ @ 39 NONAME
	_ZN18CImageEditorUIView22GetSelectedPluginInfoLEv @ 40 NONAME
	_ZN18CImageEditorUIView22HandleClientRectChangeEv @ 41 NONAME
	_ZN18CImageEditorUIView24ViewScreenModeCompatibleEi @ 42 NONAME
	_ZN18CImageEditorUIView26HandleStatusPaneSizeChangeEv @ 43 NONAME
	_ZN18CImageEditorUIView7SetBusyEv @ 44 NONAME
	_ZN18CImageEditorUIView9ResetBusyEv @ 45 NONAME
	_ZN18CImageEditorUIView9SetImageLEP10CFbsBitmap @ 46 NONAME
	_ZN18CImageEditorUIViewC1Ev @ 47 NONAME
	_ZN18CImageEditorUIViewC2Ev @ 48 NONAME
	_ZN18CImageEditorUIViewD0Ev @ 49 NONAME
	_ZN18CImageEditorUIViewD1Ev @ 50 NONAME
	_ZN18CImageEditorUIViewD2Ev @ 51 NONAME
	_ZN19CColorSelectionGrid10ConstructLEPK11CCoeControli @ 52 NONAME
	_ZN19CColorSelectionGrid11SizeChangedEv @ 53 NONAME
	_ZN19CColorSelectionGridC1Ev @ 54 NONAME
	_ZN19CColorSelectionGridC2Ev @ 55 NONAME
	_ZN19CColorSelectionGridD0Ev @ 56 NONAME
	_ZN19CColorSelectionGridD1Ev @ 57 NONAME
	_ZN19CColorSelectionGridD2Ev @ 58 NONAME
	_ZN19CPreviewControlBase10ConstructLERK5TRectP11CCoeControl @ 59 NONAME
	_ZN19CPreviewControlBase4NewLERK5TRectP11CCoeControl @ 60 NONAME
	_ZN19CPreviewControlBase9SetImageLEP10CFbsBitmap @ 61 NONAME
	_ZN19CPreviewControlBase9SetImageLEPK10CFbsBitmap @ 62 NONAME
	_ZN19CPreviewControlBaseD0Ev @ 63 NONAME
	_ZN19CPreviewControlBaseD1Ev @ 64 NONAME
	_ZN19CPreviewControlBaseD2Ev @ 65 NONAME
	_ZN19CSingleParamControl10ConstructLERK5TRectP11CCoeControli @ 66 NONAME
	_ZN19CSingleParamControl10MoveSliderEi @ 67 NONAME
	_ZN19CSingleParamControl10SetCaptionERK7TDesC16 @ 68 NONAME
	_ZN19CSingleParamControl11SizeChangedEv @ 69 NONAME
	_ZN19CSingleParamControl13SetSliderStepEj @ 70 NONAME
	_ZN19CSingleParamControl14OfferKeyEventLERK9TKeyEvent10TEventCode @ 71 NONAME
	_ZN19CSingleParamControl14SetParObserverEP25MSingleParControlObserver @ 72 NONAME
	_ZN19CSingleParamControl16GetNaviPaneTextLERiS0_ @ 73 NONAME
	_ZN19CSingleParamControl16GetSoftkeyIndexLEv @ 74 NONAME
	_ZN19CSingleParamControl17SetSliderPositionEi @ 75 NONAME
	_ZN19CSingleParamControl18SetSelectedUiItemLEP11CPluginInfo @ 76 NONAME
	_ZN19CSingleParamControl19HandlePointerEventLERK13TPointerEvent @ 77 NONAME
	_ZN19CSingleParamControl19SetSliderStepAmountEh @ 78 NONAME
	_ZN19CSingleParamControl20HandlePluginCommandLEi @ 79 NONAME
	_ZN19CSingleParamControl26SetSliderMinimumAndMaximumEii @ 80 NONAME
	_ZN19CSingleParamControl27CountImageSizesAndPositionsEv @ 81 NONAME
	_ZN19CSingleParamControl4NewLERK5TRectP11CCoeControli @ 82 NONAME
	_ZN19CSingleParamControl7SetIconEP9CEikImage @ 83 NONAME
	_ZN19CSingleParamControl7SetViewEP8CAknView @ 84 NONAME
	_ZN19CSingleParamControlC1Ev @ 85 NONAME
	_ZN19CSingleParamControlC2Ev @ 86 NONAME
	_ZN19CSingleParamControlD0Ev @ 87 NONAME
	_ZN19CSingleParamControlD1Ev @ 88 NONAME
	_ZN19CSingleParamControlD2Ev @ 89 NONAME
	_ZN21CMultiLineQueryDialog14OfferKeyEventLERK9TKeyEvent10TEventCode @ 90 NONAME
	_ZN21CMultiLineQueryDialog4NewLER6TDes16RKN15CAknQueryDialog5TToneE @ 91 NONAME
	_ZN21CMultiLineQueryDialogC1ER6TDes16RKN15CAknQueryDialog5TToneE @ 92 NONAME
	_ZN21CMultiLineQueryDialogC2ER6TDes16RKN15CAknQueryDialog5TToneE @ 93 NONAME
	_ZN21CMultiLineQueryDialogD0Ev @ 94 NONAME
	_ZN21CMultiLineQueryDialogD1Ev @ 95 NONAME
	_ZN21CMultiLineQueryDialogD2Ev @ 96 NONAME
	_ZN23CImageEditorControlBase10ConstructLERK5TRectP11CCoeControl @ 97 NONAME
	_ZN23CImageEditorControlBase11SizeChangedEv @ 98 NONAME
	_ZN23CImageEditorControlBase14OfferKeyEventLERK9TKeyEvent10TEventCode @ 99 NONAME
	_ZN23CImageEditorControlBase16GetNaviPaneTextLERiS0_ @ 100 NONAME
	_ZN23CImageEditorControlBase16GetSoftkeyIndexLEv @ 101 NONAME
	_ZN23CImageEditorControlBase18GetDimmedMenuItemsEv @ 102 NONAME
	_ZN23CImageEditorControlBase18SetSelectedUiItemLEP11CPluginInfo @ 103 NONAME
	_ZN23CImageEditorControlBase19HandlePointerEventLERK13TPointerEvent @ 104 NONAME
	_ZN23CImageEditorControlBase20HandlePluginCommandLEi @ 105 NONAME
	_ZN23CImageEditorControlBase24GetContextMenuResourceIdEv @ 106 NONAME
	_ZN23CImageEditorControlBase7SetBusyEv @ 107 NONAME
	_ZN23CImageEditorControlBase7SetViewEP8CAknView @ 108 NONAME
	_ZN23CImageEditorControlBase8PrepareLEv @ 109 NONAME
	_ZN23CImageEditorControlBase9ResetBusyEv @ 110 NONAME
	_ZN23CImageEditorControlBase9SetImageLEP10CFbsBitmap @ 111 NONAME
	_ZN23CImageEditorControlBase9SetImageLEPK10CFbsBitmap @ 112 NONAME
	_ZN23CImageEditorControlBaseC1Ev @ 113 NONAME
	_ZN23CImageEditorControlBaseC2Ev @ 114 NONAME
	_ZN23CImageEditorControlBaseD0Ev @ 115 NONAME
	_ZN23CImageEditorControlBaseD1Ev @ 116 NONAME
	_ZN23CImageEditorControlBaseD2Ev @ 117 NONAME
	_ZNK18CImageEditorUIView12GetContainerEv @ 118 NONAME
	_ZNK18CImageEditorUIView13UpdateLayoutLEi @ 119 NONAME
	_ZNK18CImageEditorUIView14HideWaitDialogEv @ 120 NONAME
	_ZNK18CImageEditorUIView16LaunchSendQueryLERK20TSendingCapabilitiesR4TBufILi256EE @ 121 NONAME
	_ZNK18CImageEditorUIView16LaunchSendQueryLERK20TSendingCapabilitiesR5RFile @ 122 NONAME
	_ZNK18CImageEditorUIView16LaunchWaitDialogEv @ 123 NONAME
	_ZNK18CImageEditorUIView17SetCustomButtonsLEi @ 124 NONAME
	_ZNK18CImageEditorUIView20ShowInformationNoteLERK7TDesC16 @ 125 NONAME
	_ZNK18CImageEditorUIView21LaunchLoadWaitDialogLEPP14CAknWaitDialogP23MProgressDialogCallback @ 126 NONAME
	_ZNK18CImageEditorUIView21LaunchSaveImageQueryLEv @ 127 NONAME
	_ZNK18CImageEditorUIView21LaunchSaveWaitDialogLEPP18CAknProgressDialogiP23MProgressDialogCallback @ 128 NONAME
	_ZNK18CImageEditorUIView21ShowConfirmationNoteLERK7TDesC16 @ 129 NONAME
	_ZNK18CImageEditorUIView23LaunchSaveChangesQueryLEv @ 130 NONAME
	_ZNK18CImageEditorUIView27LaunchCancelTextInputQueryLEv @ 131 NONAME
	_ZNK18CImageEditorUIView29LaunchExitWithoutSavingQueryLEv @ 132 NONAME
	_ZNK18CImageEditorUIView2IdEv @ 133 NONAME
	_ZNK19CPreviewControlBase16DrawPreviewImageERK5TRect @ 134 NONAME
	_ZNK19CPreviewControlBase4DrawERK5TRect @ 135 NONAME
	_ZNK19CSingleParamControl16ComponentControlEi @ 136 NONAME
	_ZNK19CSingleParamControl22CountComponentControlsEv @ 137 NONAME
	_ZNK19CSingleParamControl4DrawERK5TRect @ 138 NONAME
	_ZNK19CSingleParamControl8PositionEv @ 139 NONAME
	_ZNK23CImageEditorControlBase16ComponentControlEi @ 140 NONAME
	_ZNK23CImageEditorControlBase22CountComponentControlsEv @ 141 NONAME
	_ZNK23CImageEditorControlBase4BusyEv @ 142 NONAME
	_ZNK23CImageEditorControlBase4DrawERK5TRect @ 143 NONAME
	_ZTI11CPluginGrid @ 144 NONAME
	_ZTI18CImageEditorUIView @ 145 NONAME
	_ZTI19CColorSelectionGrid @ 146 NONAME
	_ZTI19CPreviewControlBase @ 147 NONAME
	_ZTI19CSingleParamControl @ 148 NONAME
	_ZTI20CColorSelectionPopup @ 149 NONAME
	_ZTI21CColorSelectionDialog @ 150 NONAME
	_ZTI21CMultiLineQueryDialog @ 151 NONAME
	_ZTI22CPluginSelectionDialog @ 152 NONAME
	_ZTI23CImageEditorControlBase @ 153 NONAME
	_ZTI23CImageEditorUIContainer @ 154 NONAME
	_ZTV11CPluginGrid @ 155 NONAME
	_ZTV18CImageEditorUIView @ 156 NONAME
	_ZTV19CColorSelectionGrid @ 157 NONAME
	_ZTV19CPreviewControlBase @ 158 NONAME
	_ZTV19CSingleParamControl @ 159 NONAME
	_ZTV20CColorSelectionPopup @ 160 NONAME
	_ZTV21CColorSelectionDialog @ 161 NONAME
	_ZTV21CMultiLineQueryDialog @ 162 NONAME
	_ZTV22CPluginSelectionDialog @ 163 NONAME
	_ZTV23CImageEditorControlBase @ 164 NONAME
	_ZTV23CImageEditorUIContainer @ 165 NONAME
	_ZThn12_N18CImageEditorUIView16DynInitMenuPaneLEiP12CEikMenuPane @ 166 NONAME
	_ZThn4_N18CImageEditorUIView24ViewScreenModeCompatibleEi @ 167 NONAME
	_ZN18CImageEditorUIView23IsMemoryInCriticalLevelEv @ 168 NONAME
	_ZN23CImageEditorUIContainer12IsDrawPluginEi @ 169 NONAME

