EXPORTS
	??1CEngineWrapper@@UAE@XZ @ 1 NONAME ; CEngineWrapper::~CEngineWrapper(void)
	?AddFilterL@CEngineWrapper@@QAEXABVTDesC16@@@Z @ 2 NONAME ; void CEngineWrapper::AddFilterL(class TDesC16 const &)
	?AddUndoRedoStepL@CEngineWrapper@@QAEXXZ @ 3 NONAME ; void CEngineWrapper::AddUndoRedoStepL(void)
	?CanUndo@CEngineWrapper@@QAEHXZ @ 4 NONAME ; int CEngineWrapper::CanUndo(void)
	?CreateExifThumbNailL@CEngineWrapper@@QAEXXZ @ 5 NONAME ; void CEngineWrapper::CreateExifThumbNailL(void)
	?CreateIclSourceL@CEngineWrapper@@QAEXABVTDesC16@@@Z @ 6 NONAME ; void CEngineWrapper::CreateIclSourceL(class TDesC16 const &)
	?CreateJpegSourceL@CEngineWrapper@@QAEXABVTDesC16@@@Z @ 7 NONAME ; void CEngineWrapper::CreateJpegSourceL(class TDesC16 const &)
	?CreateJpegTargetL@CEngineWrapper@@QAEXABVTDesC16@@HPBVTSize@@@Z @ 8 NONAME ; void CEngineWrapper::CreateJpegTargetL(class TDesC16 const &, int, class TSize const *)
	?CreateRGB888TargetL@CEngineWrapper@@QAEXXZ @ 9 NONAME ; void CEngineWrapper::CreateRGB888TargetL(void)
	?GetOutputImageSize@CEngineWrapper@@QBEXAAH0@Z @ 10 NONAME ; void CEngineWrapper::GetOutputImageSize(int &, int &) const
	?GetSystemPars@CEngineWrapper@@QAEPAVCSystemParameters@@XZ @ 11 NONAME ; class CSystemParameters * CEngineWrapper::GetSystemPars(void)
	?GetZoomMode@CEngineWrapper@@QAE?AW4TZoomMode@@XZ @ 12 NONAME ; enum TZoomMode CEngineWrapper::GetZoomMode(void)
	?InitUndoRedo@CEngineWrapper@@QAEXXZ @ 13 NONAME ; void CEngineWrapper::InitUndoRedo(void)
	?IsImageChanged@CEngineWrapper@@QAEHXZ @ 14 NONAME ; int CEngineWrapper::IsImageChanged(void)
	?NewL@CEngineWrapper@@SAPAV1@XZ @ 15 NONAME ; class CEngineWrapper * CEngineWrapper::NewL(void)
	?PanL@CEngineWrapper@@QAEXHH@Z @ 16 NONAME ; void CEngineWrapper::PanL(int, int)
	?PanL@CEngineWrapper@@QAEXW4TDirection@@@Z @ 17 NONAME ; void CEngineWrapper::PanL(enum TDirection)
	?RenderAbortL@CEngineWrapper@@QAEXXZ @ 18 NONAME ; void CEngineWrapper::RenderAbortL(void)
	?RenderBlockL@CEngineWrapper@@QAEHXZ @ 19 NONAME ; int CEngineWrapper::RenderBlockL(void)
	?RenderL@CEngineWrapper@@QAEXPAH@Z @ 20 NONAME ; void CEngineWrapper::RenderL(int *)
	?RestoreZoomL@CEngineWrapper@@QAEXXZ @ 21 NONAME ; void CEngineWrapper::RestoreZoomL(void)
	?RotateL@CEngineWrapper@@QAEXW4TRotation@@@Z @ 22 NONAME ; void CEngineWrapper::RotateL(enum TRotation)
	?SetBitmap@CEngineWrapper@@QAEXPAVCFbsBitmap@@@Z @ 23 NONAME ; void CEngineWrapper::SetBitmap(class CFbsBitmap *)
	?SetJpegCommentL@CEngineWrapper@@QAEXABVTDesC8@@@Z @ 24 NONAME ; void CEngineWrapper::SetJpegCommentL(class TDesC8 const &)
	?SetParamsL@CEngineWrapper@@QAEXABVTDesC16@@@Z @ 25 NONAME ; void CEngineWrapper::SetParamsL(class TDesC16 const &)
	?SetScreenSizeL@CEngineWrapper@@QAEXABVTSize@@@Z @ 26 NONAME ; void CEngineWrapper::SetScreenSizeL(class TSize const &)
	?StoreZoomL@CEngineWrapper@@QAEXXZ @ 27 NONAME ; void CEngineWrapper::StoreZoomL(void)
	?UndoL@CEngineWrapper@@QAEXXZ @ 28 NONAME ; void CEngineWrapper::UndoL(void)
	?ZoomL@CEngineWrapper@@QAEXW4TZoom@@@Z @ 29 NONAME ; void CEngineWrapper::ZoomL(enum TZoom)

