EXPORTS
	_ZN11CObCallback10DoCallbackEi @ 1 NONAME
	_ZN11CObCallback4NewLEP17MObCallbackMethod @ 2 NONAME
	_ZN11CObCallbackD0Ev @ 3 NONAME
	_ZN11CObCallbackD1Ev @ 4 NONAME
	_ZN11CObCallbackD2Ev @ 5 NONAME
	_ZN11CPluginInfo10ParametersEv @ 6 NONAME
	_ZN11CPluginInfo10PluginNameEv @ 7 NONAME
	_ZN11CPluginInfo11PluginScopeEv @ 8 NONAME
	_ZN11CPluginInfo12InternalizeLER11RReadStream @ 9 NONAME
	_ZN11CPluginInfo12PluginUiTypeEv @ 10 NONAME
	_ZN11CPluginInfo16PluginFilterTypeEv @ 11 NONAME
	_ZN11CPluginInfo17ComparePluginInfoERKS_S1_ @ 12 NONAME
	_ZN11CPluginInfo18ComparePluginOrderERKS_S1_ @ 13 NONAME
	_ZN11CPluginInfo18PluginDisplayOrderEv @ 14 NONAME
	_ZN11CPluginInfo4IconEv @ 15 NONAME
	_ZN11CPluginInfo4MaskEv @ 16 NONAME
	_ZN11CPluginInfo4NewLEv @ 17 NONAME
	_ZN11CPluginInfo4Uid2Ev @ 18 NONAME
	_ZN11CPluginInfo4Uid3Ev @ 19 NONAME
	_ZN11CPluginInfo5NewLCEv @ 20 NONAME
	_ZN11CPluginInfo7MSKCmdsEv @ 21 NONAME
	_ZN11CPluginInfo7Sk1CmdsEv @ 22 NONAME
	_ZN11CPluginInfo7Sk2CmdsEv @ 23 NONAME
	_ZN11CPluginInfo8IconFileEv @ 24 NONAME
	_ZN11CPluginInfo8MSKTextsEv @ 25 NONAME
	_ZN11CPluginInfo8Sk1TextsEv @ 26 NONAME
	_ZN11CPluginInfo8Sk2TextsEv @ 27 NONAME
	_ZN11CPluginInfo9MenuItemsEv @ 28 NONAME
	_ZN11CPluginInfo9PluginDllEv @ 29 NONAME
	_ZN11CPluginInfo9PluginRIDEv @ 30 NONAME
	_ZN11CPluginInfoD0Ev @ 31 NONAME
	_ZN11CPluginInfoD1Ev @ 32 NONAME
	_ZN11CPluginInfoD2Ev @ 33 NONAME
	_ZN15CResolutionUtil11InitializeLEv @ 34 NONAME
	_ZN15CResolutionUtil12SetLandscapeEi @ 35 NONAME
	_ZN15CResolutionUtil13SetClientRectERK5TRect @ 36 NONAME
	_ZN15CResolutionUtil13SetFullScreenEi @ 37 NONAME
	_ZN15CResolutionUtil13SetScreenRectERK5TRect @ 38 NONAME
	_ZN15CResolutionUtil16UpdateScreenModeEv @ 39 NONAME
	_ZN15CResolutionUtil4SelfEv @ 40 NONAME
	_ZN15CResolutionUtilD0Ev @ 41 NONAME
	_ZN15CResolutionUtilD1Ev @ 42 NONAME
	_ZN15CResolutionUtilD2Ev @ 43 NONAME
	_ZN16ImageEditorUtils16GetMakeAndModelLER5TDes8S1_ @ 44 NONAME
	_ZN16ImageEditorUtils17GenerateFilePathLER3RFsRK7TDesC16R6TDes16NS_16TMemorySelectionE @ 45 NONAME
	_ZN16ImageEditorUtils17ImageFitsToDriveLER3RFsRK7TDesC16S4_ @ 46 NONAME
	_ZN16ImageEditorUtils17ImagesFitToDriveLER3RFsRK12CDesC16ArrayS4_ @ 47 NONAME
	_ZN16ImageEditorUtils20AddImageFileToAlbumLERK7TDesC16i @ 48 NONAME
	_ZN16ImageEditorUtils20GenerateNewFileNameLER3RFsRK7TDesC16R6TDes164TBufILi256EEPK12CDesC16Array @ 49 NONAME
	_ZN16ImageEditorUtils23FindAlbumsForImageFileLER6RArrayIiERK7TDesC16 @ 50 NONAME
	_ZN16ImageEditorUtils23NotifyNewMediaDocumentLER3RFsRK12MDesC16Array @ 51 NONAME
	_ZN16ImageEditorUtils23NotifyNewMediaDocumentLER3RFsRK7TDesC16 @ 52 NONAME
	_ZN16ImageEditorUtils24GenerateNewDocumentNameLER3RFsRK7TDesC16R6TDes16P6RArrayIiEPK12CDesC16ArrayNS_16TMemorySelectionE @ 53 NONAME
	_ZN16ImageEditorUtils8CopyFileER3RFsRK7TDesC16S4_i @ 54 NONAME
	_ZN8CLogFile10LogNewlineEv @ 55 NONAME
	_ZN8CLogFile10StaticLogLERK7TDesC16RK6TDesC8 @ 56 NONAME
	_ZN8CLogFile10StaticLogLERK7TDesC16S2_ @ 57 NONAME
	_ZN8CLogFile12SetAutoFlushEi @ 58 NONAME
	_ZN8CLogFile14SetAutoNewlineEi @ 59 NONAME
	_ZN8CLogFile16SetAutoTimeStampEi @ 60 NONAME
	_ZN8CLogFile3LogERK6TDesC8 @ 61 NONAME
	_ZN8CLogFile3LogERK7TDesC16 @ 62 NONAME
	_ZN8CLogFile3LogEh @ 63 NONAME
	_ZN8CLogFile3LogEj @ 64 NONAME
	_ZN8CLogFile4NewLERK7TDesC16i @ 65 NONAME
	_ZN8CLogFile5NewLCERK7TDesC16i @ 66 NONAME
	_ZN8CLogFile7LogTimeEv @ 67 NONAME
	_ZN8CLogFile8LogBytesERK6TDesC8 @ 68 NONAME
	_ZN8CLogFile9StaticLogERK7TDesC16RK6TDesC8 @ 69 NONAME
	_ZN8CLogFile9StaticLogERK7TDesC16S2_ @ 70 NONAME
	_ZN8CLogFileD0Ev @ 71 NONAME
	_ZN8CLogFileD1Ev @ 72 NONAME
	_ZN8CLogFileD2Ev @ 73 NONAME
	_ZN9TBitField5ResetEv @ 74 NONAME
	_ZN9TBitField6SetBitEm @ 75 NONAME
	_ZN9TBitFieldC1ERKS_ @ 76 NONAME
	_ZN9TBitFieldC1Ev @ 77 NONAME
	_ZN9TBitFieldC2ERKS_ @ 78 NONAME
	_ZN9TBitFieldC2Ev @ 79 NONAME
	_ZN9TBitFieldD1Ev @ 80 NONAME
	_ZN9TBitFieldD2Ev @ 81 NONAME
	_ZN9TBitFieldaSERKS_ @ 82 NONAME
	_ZNK11CPluginInfo10ParametersEv @ 83 NONAME
	_ZNK11CPluginInfo10PluginNameEv @ 84 NONAME
	_ZNK11CPluginInfo11PluginScopeEv @ 85 NONAME
	_ZNK11CPluginInfo12ExternalizeLER12RWriteStream @ 86 NONAME
	_ZNK11CPluginInfo12PluginUiTypeEv @ 87 NONAME
	_ZNK11CPluginInfo16PluginFilterTypeEv @ 88 NONAME
	_ZNK11CPluginInfo18PluginDisplayOrderEv @ 89 NONAME
	_ZNK11CPluginInfo4IconEv @ 90 NONAME
	_ZNK11CPluginInfo4MaskEv @ 91 NONAME
	_ZNK11CPluginInfo4Uid2Ev @ 92 NONAME
	_ZNK11CPluginInfo4Uid3Ev @ 93 NONAME
	_ZNK11CPluginInfo7MSKCmdsEv @ 94 NONAME
	_ZNK11CPluginInfo7Sk1CmdsEv @ 95 NONAME
	_ZNK11CPluginInfo7Sk2CmdsEv @ 96 NONAME
	_ZNK11CPluginInfo8IconFileEv @ 97 NONAME
	_ZNK11CPluginInfo8MSKTextsEv @ 98 NONAME
	_ZNK11CPluginInfo8Sk1TextsEv @ 99 NONAME
	_ZNK11CPluginInfo8Sk2TextsEv @ 100 NONAME
	_ZNK11CPluginInfo9MenuItemsEv @ 101 NONAME
	_ZNK11CPluginInfo9PluginDllEv @ 102 NONAME
	_ZNK11CPluginInfo9PluginRIDEv @ 103 NONAME
	_ZNK15CResolutionUtil10ScreenModeEv @ 104 NONAME
	_ZNK15CResolutionUtil12GetLandscapeEv @ 105 NONAME
	_ZNK15CResolutionUtil13GetClientRectER5TRect @ 106 NONAME
	_ZNK15CResolutionUtil13GetFullScreenEv @ 107 NONAME
	_ZNK15CResolutionUtil13GetScreenModeEv @ 108 NONAME
	_ZNK15CResolutionUtil13GetScreenRectER5TRect @ 109 NONAME
	_ZNK9TBitField6GetBitEm @ 110 NONAME
	_ZTI11CObCallback @ 111 NONAME ; #<TI>#
	_ZTI11CPluginInfo @ 112 NONAME ; #<TI>#
	_ZTI15CResolutionUtil @ 113 NONAME ; #<TI>#
	_ZTV11CObCallback @ 114 NONAME ; #<VT>#
	_ZTV11CPluginInfo @ 115 NONAME ; #<VT>#
	_ZTV15CResolutionUtil @ 116 NONAME ; #<VT>#

